Certificate:
    Data:
        Version: 3 (0x2)
        Serial Number: 2591289149164860794 (0x23f61bc07e4bb57a)
    Signature Algorithm: sha256WithRSAEncryption
        Issuer: emailAddress=ca@paysafecard.com, CN=paysafecard Root CA, OU=paysafecard CA, O=paysafecard.com Wertkarten GmbH, L=Vienna, C=AT
        Validity
            Not Before: Nov 20 15:00:48 2014 GMT
            Not After : Nov 20 15:00:48 2034 GMT
        Subject: emailAddress=ca@paysafecard.com, CN=paysafecard Root CA, OU=paysafecard CA, O=paysafecard.com Wertkarten GmbH, L=Vienna, C=AT
        Subject Public Key Info:
            Public Key Algorithm: rsaEncryption
                Public-Key: (2048 bit)
                Modulus:
                    00:af:ab:d5:1d:41:5c:58:b7:1d:d6:12:73:6c:f4:
                    08:b1:62:f4:d3:0f:da:63:75:92:1b:d3:4e:3b:90:
                    f7:ef:88:d8:a3:fb:49:61:f0:a4:62:51:da:b1:62:
                    35:6b:52:db:60:22:58:a0:04:3f:61:94:3e:5a:ea:
                    2c:96:cd:f7:46:2d:d2:6a:f3:bb:2d:ec:f2:37:8e:
                    cc:38:26:f7:42:a3:fa:99:24:57:36:db:66:e3:24:
                    41:2e:ea:55:2e:d0:5b:ca:8c:81:84:b0:62:48:aa:
                    ac:06:23:2a:84:d1:28:11:0b:50:81:5d:09:95:99:
                    67:36:12:17:ea:a4:53:b7:28:1d:5d:12:2f:df:d6:
                    b3:c4:26:fe:86:79:91:cc:5b:0e:72:7a:41:96:82:
                    67:35:57:6b:3f:b2:ea:03:3c:c0:ec:08:0d:84:75:
                    be:0e:43:36:c2:4a:32:f1:d3:06:1d:e3:25:5f:7c:
                    58:18:ac:82:d9:77:69:ba:04:88:19:63:65:67:0e:
                    5f:5b:f3:ec:f3:49:b3:77:c8:47:ce:1c:c0:f4:ad:
                    b1:c4:f2:20:12:9e:03:56:4f:db:75:4a:8b:ac:e6:
                    84:e8:7d:06:fa:a5:16:34:da:28:5c:93:cb:21:36:
                    47:71:96:f1:a2:d2:2d:b3:f1:64:3a:3c:80:21:d3:
                    77:75
                Exponent: 65537 (0x10001)
        X509v3 extensions:
            X509v3 Subject Key Identifier: 
                C8:0C:D5:30:E8:CE:FB:D9:DC:BB:70:20:88:06:57:C6:3A:88:B6:6B
            X509v3 Basic Constraints: critical
                CA:TRUE
            X509v3 Authority Key Identifier: 
                keyid:C8:0C:D5:30:E8:CE:FB:D9:DC:BB:70:20:88:06:57:C6:3A:88:B6:6B

            X509v3 Key Usage: critical
                Digital Signature, Certificate Sign, CRL Sign
    Signature Algorithm: sha256WithRSAEncryption
         1f:23:c4:7c:d2:2e:f4:d9:ea:38:34:00:7b:49:94:90:83:9b:
         97:43:5e:d9:8f:bc:ec:ad:ac:15:2a:2e:f3:90:92:07:e6:fc:
         aa:d2:a3:2d:a6:22:d3:a9:1a:7a:1b:d8:b7:ed:9d:f3:e1:52:
         0a:e3:4b:33:69:ae:6e:b1:13:7f:b8:5d:17:e4:5e:67:ed:d2:
         d2:be:7d:64:23:12:69:6a:e4:0d:00:85:a5:d3:75:b2:fc:36:
         7a:c2:1f:86:a3:39:56:cb:ef:3e:3a:2b:96:f6:4c:97:6f:41:
         21:35:0a:03:e9:f2:87:22:c5:53:b7:b5:f6:6c:45:7a:b6:fe:
         7d:2d:31:8b:f7:18:c3:75:e0:dc:4c:c8:47:d3:0b:bf:6b:a1:
         96:79:2f:c6:80:2c:07:e5:1f:07:00:9a:cc:b4:a2:69:02:8c:
         78:e1:90:f7:7b:fe:c0:33:41:86:f3:d4:4b:ed:c3:e0:d2:47:
         8a:57:01:a4:d0:29:95:f9:50:5a:5f:f4:33:81:03:00:7f:87:
         0b:82:eb:1f:19:2a:7d:58:cd:8a:6a:ce:e9:17:51:76:d3:f0:
         7c:54:99:e5:c7:87:93:59:e6:c7:62:09:b9:c1:61:da:c7:c8:
         af:39:20:f5:cf:f4:f2:a7:26:39:4c:69:d8:55:56:ea:27:3f:
         29:b5:56:04
-----BEGIN CERTIFICATE-----
MIIEKzCCAxOgAwIBAgIII/YbwH5LtXowDQYJKoZIhvcNAQELBQAwgaIxITAfBgkq
hkiG9w0BCQEWEmNhQHBheXNhZmVjYXJkLmNvbTEcMBoGA1UEAwwTcGF5c2FmZWNh
cmQgUm9vdCBDQTEXMBUGA1UECwwOcGF5c2FmZWNhcmQgQ0ExKDAmBgNVBAoMH3Bh
eXNhZmVjYXJkLmNvbSBXZXJ0a2FydGVuIEdtYkgxDzANBgNVBAcMBlZpZW5uYTEL
MAkGA1UEBhMCQVQwHhcNMTQxMTIwMTUwMDQ4WhcNMzQxMTIwMTUwMDQ4WjCBojEh
MB8GCSqGSIb3DQEJARYSY2FAcGF5c2FmZWNhcmQuY29tMRwwGgYDVQQDDBNwYXlz
YWZlY2FyZCBSb290IENBMRcwFQYDVQQLDA5wYXlzYWZlY2FyZCBDQTEoMCYGA1UE
CgwfcGF5c2FmZWNhcmQuY29tIFdlcnRrYXJ0ZW4gR21iSDEPMA0GA1UEBwwGVmll
bm5hMQswCQYDVQQGEwJBVDCCASIwDQYJKoZIhvcNAQEBBQADggEPADCCAQoCggEB
AK+r1R1BXFi3HdYSc2z0CLFi9NMP2mN1khvTTjuQ9++I2KP7SWHwpGJR2rFiNWtS
22AiWKAEP2GUPlrqLJbN90Yt0mrzuy3s8jeOzDgm90Kj+pkkVzbbZuMkQS7qVS7Q
W8qMgYSwYkiqrAYjKoTRKBELUIFdCZWZZzYSF+qkU7coHV0SL9/Ws8Qm/oZ5kcxb
DnJ6QZaCZzVXaz+y6gM8wOwIDYR1vg5DNsJKMvHTBh3jJV98WBisgtl3aboEiBlj
ZWcOX1vz7PNJs3fIR84cwPStscTyIBKeA1ZP23VKi6zmhOh9BvqlFjTaKFyTyyE2
R3GW8aLSLbPxZDo8gCHTd3UCAwEAAaNjMGEwHQYDVR0OBBYEFMgM1TDozvvZ3Ltw
IIgGV8Y6iLZrMA8GA1UdEwEB/wQFMAMBAf8wHwYDVR0jBBgwFoAUyAzVMOjO+9nc
u3AgiAZXxjqItmswDgYDVR0PAQH/BAQDAgGGMA0GCSqGSIb3DQEBCwUAA4IBAQAf
I8R80i702eo4NAB7SZSQg5uXQ17Zj7zsrawVKi7zkJIH5vyq0qMtpiLTqRp6G9i3
7Z3z4VIK40szaa5usRN/uF0X5F5n7dLSvn1kIxJpauQNAIWl03Wy/DZ6wh+GozlW
y+8+OiuW9kyXb0EhNQoD6fKHIsVTt7X2bEV6tv59LTGL9xjDdeDcTMhH0wu/a6GW
eS/GgCwH5R8HAJrMtKJpAox44ZD3e/7AM0GG89RL7cPg0keKVwGk0CmV+VBaX/Qz
gQMAf4cLgusfGSp9WM2Kas7pF1F20/B8VJnlx4eTWebHYgm5wWHax8ivOSD1z/Ty
pyY5TGnYVVbqJz8ptVYE
-----END CERTIFICATE-----
